(dp0
S'acomp_linreg'
p1
ccopy_reg
_reconstructor
p2
(cscipy.stats._stats_mstats_common
LinregressResult
p3
c__builtin__
tuple
p4
(cnumpy.core.multiarray
scalar
p5
(cnumpy
dtype
p6
(S'f8'
p7
I0
I1
tp8
Rp9
(I3
S'<'
p10
NNNI-1
I-1
I0
tp11
bS'\xc5N\xec\xc4N\xec\x1a@'
p12
tp13
Rp14
g5
(g9
S'\x00\x06\x8e\x9a\x91\xbc\xc4\xbf'
p15
tp16
Rp17
g5
(g9
S'\x05t~\x041\x94\xe7?'
p18
tp19
Rp20
g5
(g9
S'\x95"\xdf\x84\x99\xf4\xb0>'
p21
tp22
Rp23
g5
(g9
S'\x80\xa2^40\xbf\xf1?'
p24
tp25
Rp26
tp27
tp28
Rp29
sS'muscle_dics'
p30
(lp31
(dp32
S'abs_complexity'
p33
I5
sS'complexity'
p34
F83.33333333333334
sS'sMuscle'
p35
S'BIC_LO'
p36
sS'idMuscle'
p37
I1
sS'idDOFList'
p38
(lp39
I1
asa(dp40
g33
I5
sg34
F83.33333333333334
sg35
S'BIC_SH'
p41
sg37
I2
sg38
(lp42
I1
asa(dp43
g33
I4
sg34
F66.66666666666666
sg35
S'SUP'
p44
sg37
I3
sg38
(lp45
I1
asa(dp46
g33
I5
sg34
F83.33333333333334
sg35
S'PT'
p47
sg37
I4
sg38
(lp48
I1
asa(dp49
g33
I5
sg34
F83.33333333333334
sg35
S'PQ'
p50
sg37
I5
sg38
(lp51
I1
asa(dp52
g33
I11
sg34
F52.38095238095239
sg35
S'ECR_LO'
p53
sg37
I6
sg38
(lp54
I1
aI2
asa(dp55
g33
I11
sg34
F52.38095238095239
sg35
S'ECR_BR'
p56
sg37
I7
sg38
(lp57
I1
aI2
asa(dp58
g33
I20
sg34
F95.23809523809523
sg35
S'ECU'
p59
sg37
I8
sg38
(lp60
I1
aI2
asa(dp61
g33
I11
sg34
F52.38095238095239
sg35
S'FCR'
p62
sg37
I9
sg38
(lp63
I1
aI2
asa(dp64
g33
I18
sg34
F85.71428571428571
sg35
S'FCU'
p65
sg37
I10
sg38
(lp66
I1
aI2
asa(dp67
g33
I11
sg34
F52.38095238095239
sg35
S'PL'
p68
sg37
I11
sg38
(lp69
I1
aI2
asa(dp70
g33
I16
sg34
F28.57142857142857
sg35
S'FDS5'
p71
sg37
I12
sg38
(lp72
I2
aI16
aI17
asa(dp73
g33
I16
sg34
F28.57142857142857
sg35
S'FDS4'
p74
sg37
I13
sg38
(lp75
I2
aI13
aI14
asa(dp76
g33
I16
sg34
F28.57142857142857
sg35
S'FDS3'
p77
sg37
I14
sg38
(lp78
I2
aI10
aI11
asa(dp79
g33
I16
sg34
F28.57142857142857
sg35
S'FDS2'
p80
sg37
I15
sg38
(lp81
I2
aI7
aI8
asa(dp82
g33
I21
sg34
F16.666666666666664
sg35
S'FDP5'
p83
sg37
I16
sg38
(lp84
I2
aI16
aI17
aI18
asa(dp85
g33
I21
sg34
F16.666666666666664
sg35
S'FDP4'
p86
sg37
I17
sg38
(lp87
I2
aI13
aI14
aI15
asa(dp88
g33
I21
sg34
F16.666666666666664
sg35
S'FDP3'
p89
sg37
I18
sg38
(lp90
I2
aI10
aI11
aI12
asa(dp91
g33
I21
sg34
F16.666666666666664
sg35
S'FDP2'
p92
sg37
I19
sg38
(lp93
I2
aI7
aI8
aI9
asa(dp94
g33
I25
sg34
F19.841269841269842
sg35
S'EDM'
p95
sg37
I20
sg38
(lp96
I2
aI16
aI17
aI18
asa(dp97
g33
I21
sg34
F16.666666666666664
sg35
S'ED5'
p98
sg37
I21
sg38
(lp99
I2
aI16
aI17
aI18
asa(dp100
g33
I21
sg34
F16.666666666666664
sg35
S'ED4'
p101
sg37
I22
sg38
(lp102
I2
aI13
aI14
aI15
asa(dp103
g33
I21
sg34
F16.666666666666664
sg35
S'ED3'
p104
sg37
I23
sg38
(lp105
I2
aI10
aI11
aI12
asa(dp106
g33
I21
sg34
F16.666666666666664
sg35
S'ED2'
p107
sg37
I24
sg38
(lp108
I2
aI7
aI8
aI9
asa(dp109
g33
I21
sg34
F16.666666666666664
sg35
S'EIND'
p110
sg37
I25
sg38
(lp111
I2
aI7
aI8
aI9
asa(dp112
g33
I51
sg34
F11.03896103896104
sg35
S'EPL'
p113
sg37
I26
sg38
(lp114
I1
aI2
aI4
aI3
aI5
aI6
asa(dp115
g33
I31
sg34
F24.6031746031746
sg35
S'EPB'
p116
sg37
I27
sg38
(lp117
I2
aI4
aI3
aI5
asa(dp118
g33
I26
sg34
F46.42857142857143
sg35
S'FPB'
p119
sg37
I28
sg38
(lp120
I4
aI3
aI5
asa(dp121
g33
I36
sg34
F14.285714285714285
sg35
S'FPL'
p122
sg37
I29
sg38
(lp123
I2
aI4
aI3
aI5
aI6
asa(dp124
g33
I31
sg34
F24.6031746031746
sg35
S'APL'
p125
sg37
I30
sg38
(lp126
I1
aI2
aI4
aI3
asa(dp127
g33
I21
sg34
F100.0
sg35
S'OP'
p128
sg37
I31
sg38
(lp129
I4
aI3
asa(dp130
g33
I26
sg34
F46.42857142857143
sg35
S'APB'
p131
sg37
I32
sg38
(lp132
I4
aI3
aI5
asa(dp133
g33
I55
sg34
F98.21428571428571
sg35
S'ADPT'
p134
sg37
I33
sg38
(lp135
I4
aI3
aI5
asasS'comp_linreg'
p136
g2
(g3
g4
(g5
(g9
S'\xf85\xa5j\x07k3\xc0'
p137
tp138
Rp139
g5
(g9
S'\xb5\xf5\xd5\xd5eyY@'
p140
tp141
Rp142
g5
(g9
S',R\xcc_,\x95\xea\xbf'
p143
tp144
Rp145
g5
(g9
S'PI\xc0W\xe1\xe0">'
p146
tp147
Rp148
g5
(g9
S'\xf6\x1c\x1do\xa7\xb2\x02@'
p149
tp150
Rp151
tp152
tp153
Rp154
sS'bins'
p155
I40
s.